#include <math.h>
#include <stdio.h>
#include <stdlib.h>
#include <string.h>

void main()
{
	int a[306]={0},i,j,k,s=0,max,u;
	char c[1800]={0};
	gets(c);
	c[strlen(c)]=',';
	c[strlen(c)]=',';
	for(i=0,k=0;i<=strlen(c)-1;i++)
	{
		if(c[i]!=',')
			for(j=i;j<=strlen(c)-1;j++)
			{
				if(c[j]!=',')
					a[k]=a[k]*10+c[j]-48;
				else
				{
					++k;
					i=j;
					break;
				}
			}
	}
	s=k-1;
	if(s==0)
		printf("No");
	else
	{
	for(i=0;i<=s-1;i++)
		if(a[i+1]!=a[i])
			break;
	if(i==s)
		printf("No");
	if(i!=s)
	{
		for(i=0;i<=s-1;i++)
		{
			if(a[i+1]!=a[i])
			{
				u=(a[i+1]>a[i])?a[i]:a[i+1];
				max=(a[i+1]>a[i])?a[i+1]:a[i];
				for(j=i+2;j<=s;j++)
				{
					if(a[j]>max)
						u=max,max=a[j];
					if(a[j]<max&&a[j]>u)
						u=a[j];
				}
				break;
			}
		}
		printf("%d",u);
	}
	}
}